; Function Attrs: mustprogress uwtable
define internal void @_ZN12_GLOBAL__N_116SmtrPrintVisitor11zero_extendEN5Yosys10Functional4NodeES3_i(ptr dead_on_unwind noalias writable sret(%"class.Yosys::SExpr") align 8 %0, ptr noundef nonnull align 8 dereferenceable(56) %1, ptr readnone captures(none) %2, i32 %3, ptr %4, i32 %5, i32 noundef %6) unnamed_addr #5 align 2 personality ptr @__gxx_personality_v0 {
  %8 = alloca %"class.Yosys::Functional::Node", align 8
  %9 = alloca i32, align 4
  %10 = alloca %"class.Yosys::SExpr", align 8
  %11 = alloca %"class.Yosys::SExpr", align 8
  store i32 %6, ptr %9, align 4, !tbaa !46
  call void @llvm.lifetime.start.p0(i64 40, ptr nonnull %10) #26
  call void @llvm.lifetime.start.p0(i64 16, ptr nonnull %8)
  store ptr %4, ptr %8, align 8, !noalias !538
  %12 = getelementptr inbounds nuw i8, ptr %8, i64 8
  store i32 %5, ptr %12, align 8, !noalias !538
  %13 = getelementptr inbounds nuw i8, ptr %1, i64 24
  %14 = load ptr, ptr %13, align 8, !tbaa !157, !noalias !538
  %.not.i.i = icmp eq ptr %14, null
  br i1 %.not.i.i, label %15, label %_ZNKSt8functionIFN5Yosys5SExprENS0_10Functional4NodeEEEclES3_.exit

15:                                               ; preds = %7
  tail call void @_ZSt25__throw_bad_function_callv() #28, !noalias !538
  unreachable

_ZNKSt8functionIFN5Yosys5SExprENS0_10Functional4NodeEEEclES3_.exit: ; preds = %7
  %16 = getelementptr inbounds nuw i8, ptr %1, i64 8
  %17 = getelementptr inbounds nuw i8, ptr %1, i64 32
  %18 = load ptr, ptr %17, align 8, !tbaa !159, !noalias !538
  call void %18(ptr dead_on_unwind nonnull writable sret(%"class.Yosys::SExpr") align 8 %10, ptr noundef nonnull align 8 dereferenceable(32) %16, ptr noundef nonnull align 8 dereferenceable(16) %8)
  call void @llvm.lifetime.end.p0(i64 16, ptr nonnull %8)
  call void @llvm.lifetime.start.p0(i64 40, ptr nonnull %11) #26
  invoke void @_ZN5Yosys9SExprUtil4listIJRA10_KcRiEEENS_5SExprEDpOT_(ptr dead_on_unwind nonnull writable sret(%"class.Yosys::SExpr") align 8 %11, ptr noundef nonnull align 1 dereferenceable(10) @.str.113, ptr noundef nonnull align 4 dereferenceable(4) %9)
          to label %19 unwind label %43

19:                                               ; preds = %_ZNKSt8functionIFN5Yosys5SExprENS0_10Functional4NodeEEEclES3_.exit
  invoke void @_ZN5Yosys9SExprUtil4listIJRA12_KcNS_5SExprES5_EEES5_DpOT_(ptr dead_on_unwind writable sret(%"class.Yosys::SExpr") align 8 %0, ptr noundef nonnull align 1 dereferenceable(12) @.str.112, ptr noundef nonnull align 8 dereferenceable(40) %10, ptr noundef nonnull align 8 dereferenceable(40) %11)
          to label %20 unwind label %45

20:                                               ; preds = %19
  %21 = getelementptr inbounds nuw i8, ptr %11, i64 32
  %22 = load i8, ptr %21, align 8, !tbaa !117
  %switch.i.i.i = icmp eq i8 %22, 0
  br i1 %switch.i.i.i, label %.noexc1.i.i, label %23

.noexc1.i.i:                                      ; preds = %20
  call void @_ZNSt6vectorIN5Yosys5SExprESaIS1_EED2Ev(ptr noundef nonnull align 8 dereferenceable(40) %11) #26
  br label %_ZN5Yosys5SExprD2Ev.exit

23:                                               ; preds = %20
  %24 = load ptr, ptr %11, align 8, !tbaa !17
  %25 = getelementptr inbounds nuw i8, ptr %11, i64 16
  %26 = icmp eq ptr %24, %25
  br i1 %26, label %_ZNKSt7__cxx1112basic_stringIcSt11char_traitsIcESaIcEE11_M_is_localEv.exit.thread.i.i.i.i.i.i.i.i.i.i, label %_ZNKSt7__cxx1112basic_stringIcSt11char_traitsIcESaIcEE11_M_is_localEv.exit.i.i.i.i.i.i.i.i.i.i

_ZNKSt7__cxx1112basic_stringIcSt11char_traitsIcESaIcEE11_M_is_localEv.exit.thread.i.i.i.i.i.i.i.i.i.i: ; preds = %23
  %27 = getelementptr inbounds nuw i8, ptr %11, i64 8
  %28 = load i64, ptr %27, align 8, !tbaa !22
  %29 = icmp ult i64 %28, 16
  call void @llvm.assume(i1 %29)
  br label %_ZN5Yosys5SExprD2Ev.exit

_ZNKSt7__cxx1112basic_stringIcSt11char_traitsIcESaIcEE11_M_is_localEv.exit.i.i.i.i.i.i.i.i.i.i: ; preds = %23
  %30 = load i64, ptr %25, align 8, !tbaa !23
  %31 = add i64 %30, 1
  call void @_ZdlPvm(ptr noundef %24, i64 noundef %31) #27
  br label %_ZN5Yosys5SExprD2Ev.exit

_ZN5Yosys5SExprD2Ev.exit:                         ; preds = %.noexc1.i.i, %_ZNKSt7__cxx1112basic_stringIcSt11char_traitsIcESaIcEE11_M_is_localEv.exit.thread.i.i.i.i.i.i.i.i.i.i, %_ZNKSt7__cxx1112basic_stringIcSt11char_traitsIcESaIcEE11_M_is_localEv.exit.i.i.i.i.i.i.i.i.i.i
  call void @llvm.lifetime.end.p0(i64 40, ptr nonnull %11) #26
  %32 = getelementptr inbounds nuw i8, ptr %10, i64 32
  %33 = load i8, ptr %32, align 8, !tbaa !117
  %switch.i.i.i7 = icmp eq i8 %33, 0
  br i1 %switch.i.i.i7, label %.noexc1.i.i10, label %34

.noexc1.i.i10:                                    ; preds = %_ZN5Yosys5SExprD2Ev.exit
  call void @_ZNSt6vectorIN5Yosys5SExprESaIS1_EED2Ev(ptr noundef nonnull align 8 dereferenceable(40) %10) #26
  br label %_ZN5Yosys5SExprD2Ev.exit11

34:                                               ; preds = %_ZN5Yosys5SExprD2Ev.exit
  %35 = load ptr, ptr %10, align 8, !tbaa !17
  %36 = getelementptr inbounds nuw i8, ptr %10, i64 16
  %37 = icmp eq ptr %35, %36
  br i1 %37, label %_ZNKSt7__cxx1112basic_stringIcSt11char_traitsIcESaIcEE11_M_is_localEv.exit.thread.i.i.i.i.i.i.i.i.i.i9, label %_ZNKSt7__cxx1112basic_stringIcSt11char_traitsIcESaIcEE11_M_is_localEv.exit.i.i.i.i.i.i.i.i.i.i8

_ZNKSt7__cxx1112basic_stringIcSt11char_traitsIcESaIcEE11_M_is_localEv.exit.thread.i.i.i.i.i.i.i.i.i.i9: ; preds = %34
  %38 = getelementptr inbounds nuw i8, ptr %10, i64 8
  %39 = load i64, ptr %38, align 8, !tbaa !22
  %40 = icmp ult i64 %39, 16
  call void @llvm.assume(i1 %40)
  br label %_ZN5Yosys5SExprD2Ev.exit11

_ZNKSt7__cxx1112basic_stringIcSt11char_traitsIcESaIcEE11_M_is_localEv.exit.i.i.i.i.i.i.i.i.i.i8: ; preds = %34
  %41 = load i64, ptr %36, align 8, !tbaa !23
  %42 = add i64 %41, 1
  call void @_ZdlPvm(ptr noundef %35, i64 noundef %42) #27
  br label %_ZN5Yosys5SExprD2Ev.exit11

_ZN5Yosys5SExprD2Ev.exit11:                       ; preds = %.noexc1.i.i10, %_ZNKSt7__cxx1112basic_stringIcSt11char_traitsIcESaIcEE11_M_is_localEv.exit.thread.i.i.i.i.i.i.i.i.i.i9, %_ZNKSt7__cxx1112basic_stringIcSt11char_traitsIcESaIcEE11_M_is_localEv.exit.i.i.i.i.i.i.i.i.i.i8
  call void @llvm.lifetime.end.p0(i64 40, ptr nonnull %10) #26
  ret void

43:                                               ; preds = %_ZNKSt8functionIFN5Yosys5SExprENS0_10Functional4NodeEEEclES3_.exit
  %44 = landingpad { ptr, i32 }
          cleanup
  br label %47

45:                                               ; preds = %19
  %46 = landingpad { ptr, i32 }
          cleanup
  call void @_ZN5Yosys5SExprD2Ev(ptr noundef nonnull align 8 dereferenceable(40) %11) #26
  br label %47

47:                                               ; preds = %45, %43
  %.pn = phi { ptr, i32 } [ %46, %45 ], [ %44, %43 ]
  call void @llvm.lifetime.end.p0(i64 40, ptr nonnull %11) #26
  call void @_ZN5Yosys5SExprD2Ev(ptr noundef nonnull align 8 dereferenceable(40) %10) #26
  call void @llvm.lifetime.end.p0(i64 40, ptr nonnull %10) #26
  resume { ptr, i32 } %.pn
}